Certificate:
    Data:
        Version: 3 (0x2)
        Serial Number: 2 (0x2)
        Signature Algorithm: sha256WithRSAEncryption
        Issuer: C=US, ST=Michigan, L=GrandRapids, O=observIQ, OU=test, CN=test-ca
        Validity
            Not Before: Jun 20 14:53:20 2022 GMT
            Not After : Jun 14 14:53:20 2047 GMT
        Subject: C=US, ST=Michigan, O=observIQ, OU=test, CN=localhost
        Subject Public Key Info:
            Public Key Algorithm: rsaEncryption
                RSA Public-Key: (4096 bit)
                Modulus:
                    00:b9:99:7d:1e:9c:4a:66:d7:79:e1:9d:7b:39:02:
                    b3:d0:f6:28:8a:31:37:06:ec:e4:36:e9:9f:1f:27:
                    61:04:c9:5e:97:ed:4d:f1:c2:fb:c0:4c:e9:33:bc:
                    3b:1c:a9:6f:eb:5d:4f:53:0b:97:99:d2:e3:df:8f:
                    bc:81:d5:23:f7:87:5a:6e:c5:1f:5a:f5:a0:59:11:
                    7d:56:39:b9:0c:bb:89:2d:db:51:ed:35:b4:ca:73:
                    f8:2a:5b:d9:f3:92:6b:d0:f9:e0:e4:d7:8c:74:af:
                    17:7c:fb:14:cb:95:a6:0a:cd:8d:d8:5d:6d:8d:6c:
                    77:2d:f2:30:61:9c:56:e8:51:38:d5:2b:89:dc:d8:
                    ff:1a:b0:c7:2a:cb:3a:47:07:4a:ad:c6:e6:61:60:
                    11:10:47:bd:ec:1e:4e:cd:11:db:81:74:95:58:f4:
                    0c:72:5d:7c:d2:d2:b5:15:78:7d:73:57:9e:45:c1:
                    89:0e:ea:d0:91:4f:93:71:62:83:69:77:fb:57:a8:
                    2a:e1:9b:06:2c:fe:f4:be:46:14:a7:98:ca:be:af:
                    08:41:87:90:1f:25:ca:bd:38:f1:c9:70:5c:7a:43:
                    3d:6c:74:1d:ce:cf:dd:9f:fe:d2:0e:55:8e:4a:cc:
                    f8:3e:ca:20:da:a6:aa:bb:be:8f:96:07:1c:8d:16:
                    54:80:8e:ee:a8:7a:e5:e2:5e:5c:4c:05:be:f0:c2:
                    77:f0:4f:b5:f1:d7:f7:63:7d:5a:28:77:f1:03:1a:
                    d5:31:db:7e:16:06:73:cd:dd:00:38:b4:ea:77:11:
                    23:a5:79:b9:17:1f:57:92:16:ea:05:4e:27:bf:a6:
                    02:59:ce:e7:0e:65:75:0f:13:85:05:69:0d:cb:5c:
                    8a:69:05:57:cd:2e:dc:18:33:74:72:5c:1a:b8:e8:
                    28:3a:8a:02:da:da:bc:b9:97:32:b8:c1:5c:5b:eb:
                    2d:9c:5f:c2:9a:67:0c:b8:29:9d:ab:d0:f9:5a:dd:
                    31:4f:e1:30:d1:6c:68:3a:42:de:3f:5e:68:e5:f6:
                    44:b8:d7:58:81:a4:60:d8:5d:3f:a5:8c:1f:c7:1f:
                    d0:df:5f:c7:6d:f6:25:5a:04:c8:6f:54:ee:5a:15:
                    24:1b:9d:b1:34:15:64:f7:7c:77:ba:a0:23:e7:96:
                    db:03:5d:d3:2e:c1:18:84:33:7b:0f:0f:07:d7:f5:
                    6a:3f:b4:3b:6d:7a:75:c8:e6:0d:23:db:6c:f3:0a:
                    91:8f:92:ad:5c:3a:8b:5e:22:64:05:7c:e5:c8:57:
                    03:e5:9d:87:6d:80:39:e0:de:71:c1:51:38:3b:52:
                    5e:01:f1:c0:fa:33:aa:96:25:fc:d8:0b:1b:22:b1:
                    eb:c1:8b
                Exponent: 65537 (0x10001)
        X509v3 extensions:
            X509v3 Basic Constraints: 
                CA:FALSE
            Netscape Comment: 
                generated by github.com/observiq/bindplane
            X509v3 Subject Key Identifier: 
                9A:AF:FA:DC:F8:0C:FB:BC:28:F0:6D:04:1E:DB:46:41:BA:95:B5:34
            X509v3 Authority Key Identifier: 
                keyid:49:F9:EA:BA:1C:59:7A:2B:D7:07:0E:30:D1:B4:D6:0D:94:1D:D5:C6

            X509v3 Subject Alternative Name: 
                DNS:localhost, DNS:bindplane.bindplane-dev.svc.cluster.local
    Signature Algorithm: sha256WithRSAEncryption
         72:e8:ec:db:1a:05:05:af:25:2b:3b:96:2c:34:f6:2b:1a:a3:
         0e:45:9d:b2:c1:dd:7b:11:ea:d4:2c:6a:41:1d:c6:ab:17:51:
         19:e5:cc:ab:60:04:a3:a2:c8:b5:5e:49:29:98:d6:03:bb:37:
         9c:57:ee:0e:08:98:df:f0:37:fc:1b:f2:e4:65:ff:5a:1a:36:
         4e:6e:2e:31:db:49:c8:58:0e:e4:ea:e7:88:cd:54:fd:6c:87:
         f6:c0:59:ff:94:f6:88:a2:4e:7d:47:6f:13:7b:1d:22:83:e4:
         5a:e8:fd:9c:4e:a2:94:18:45:c9:25:cf:07:75:de:54:2a:29:
         a2:54:d1:6c:15:72:05:52:ea:b9:f6:05:a1:e1:80:45:af:a0:
         be:50:3d:68:46:af:80:a0:d1:c6:68:89:87:3a:d4:75:98:30:
         77:08:54:6f:03:02:a1:74:ba:10:33:0b:29:f7:a8:56:f9:f0:
         cf:9b:be:60:7e:db:c1:c1:d7:c4:19:b9:c6:87:09:13:20:c0:
         96:24:92:49:15:31:5a:35:58:af:b3:6e:14:a9:98:4f:27:14:
         16:4f:d6:79:03:10:f9:00:3c:6d:21:fc:b1:6e:6b:5c:9b:c9:
         81:0d:bc:76:b6:1b:42:c2:d4:dc:30:91:aa:88:32:13:80:a2:
         57:18:71:95:28:b9:92:21:c9:d3:ba:7c:73:3b:da:2e:5b:8f:
         a6:cc:b2:45:48:cd:19:52:a6:03:c1:32:b1:3a:ee:6c:0b:65:
         e3:bf:38:ef:05:50:36:bd:56:a0:06:54:33:c1:40:1f:e4:69:
         11:e4:36:56:a8:02:29:00:94:ef:cb:c0:de:d0:ad:f9:71:ef:
         b7:57:48:62:4b:05:a0:96:96:e2:3a:53:5d:4a:3b:9c:23:4b:
         a0:30:5c:99:63:cd:ea:16:ad:b4:36:0e:8c:8d:4c:58:ba:17:
         c4:55:f2:6b:8e:0b:da:ba:f3:1f:fa:3f:42:41:6e:7f:b2:ad:
         f4:0c:d7:91:e5:0d:62:69:af:57:23:19:cd:b5:ef:18:9a:43:
         43:72:89:0b:3b:d9:b1:d1:03:fe:d5:37:d7:35:9e:27:54:b2:
         59:4e:2c:00:99:ce:c7:48:54:29:9b:bc:b6:75:9b:c5:8b:6a:
         97:25:e2:a8:9d:ec:88:34:65:f3:7d:0f:d5:6d:57:11:a0:43:
         12:ed:43:a8:22:59:ff:87:b6:8e:d2:41:36:f8:64:48:a8:10:
         74:ef:a8:10:20:11:e0:a5:4a:08:81:a4:5e:79:23:41:66:b1:
         06:a4:f8:ed:4a:f0:1d:59:e7:c6:ab:7a:a0:78:6e:e0:ac:c0:
         72:80:cd:0c:b3:d7:67:0d
-----BEGIN CERTIFICATE-----
MIIGBjCCA+6gAwIBAgIBAjANBgkqhkiG9w0BAQsFADBqMQswCQYDVQQGEwJVUzER
MA8GA1UECAwITWljaGlnYW4xFDASBgNVBAcMC0dyYW5kUmFwaWRzMREwDwYDVQQK
DAhvYnNlcnZJUTENMAsGA1UECwwEdGVzdDEQMA4GA1UEAwwHdGVzdC1jYTAeFw0y
MjA2MjAxNDUzMjBaFw00NzA2MTQxNDUzMjBaMFYxCzAJBgNVBAYTAlVTMREwDwYD
VQQIDAhNaWNoaWdhbjERMA8GA1UECgwIb2JzZXJ2SVExDTALBgNVBAsMBHRlc3Qx
EjAQBgNVBAMMCWxvY2FsaG9zdDCCAiIwDQYJKoZIhvcNAQEBBQADggIPADCCAgoC
ggIBALmZfR6cSmbXeeGdezkCs9D2KIoxNwbs5Dbpnx8nYQTJXpftTfHC+8BM6TO8
Oxypb+tdT1MLl5nS49+PvIHVI/eHWm7FH1r1oFkRfVY5uQy7iS3bUe01tMpz+Cpb
2fOSa9D54OTXjHSvF3z7FMuVpgrNjdhdbY1sdy3yMGGcVuhRONUridzY/xqwxyrL
OkcHSq3G5mFgERBHveweTs0R24F0lVj0DHJdfNLStRV4fXNXnkXBiQ7q0JFPk3Fi
g2l3+1eoKuGbBiz+9L5GFKeYyr6vCEGHkB8lyr048clwXHpDPWx0Hc7P3Z/+0g5V
jkrM+D7KINqmqru+j5YHHI0WVICO7qh65eJeXEwFvvDCd/BPtfHX92N9Wih38QMa
1THbfhYGc83dADi06ncRI6V5uRcfV5IW6gVOJ7+mAlnO5w5ldQ8ThQVpDctcimkF
V80u3BgzdHJcGrjoKDqKAtravLmXMrjBXFvrLZxfwppnDLgpnavQ+VrdMU/hMNFs
aDpC3j9eaOX2RLjXWIGkYNhdP6WMH8cf0N9fx232JVoEyG9U7loVJBudsTQVZPd8
d7qgI+eW2wNd0y7BGIQzew8PB9f1aj+0O216dcjmDSPbbPMKkY+SrVw6i14iZAV8
5chXA+Wdh22AOeDeccFRODtSXgHxwPozqpYl/NgLGyKx68GLAgMBAAGjgcowgccw
CQYDVR0TBAIwADA5BglghkgBhvhCAQ0ELBYqZ2VuZXJhdGVkIGJ5IGdpdGh1Yi5j
b20vb2JzZXJ2aXEvYmluZHBsYW5lMB0GA1UdDgQWBBSar/rc+Az7vCjwbQQe20ZB
upW1NDAfBgNVHSMEGDAWgBRJ+eq6HFl6K9cHDjDRtNYNlB3VxjA/BgNVHREEODA2
gglsb2NhbGhvc3SCKWJpbmRwbGFuZS5iaW5kcGxhbmUtZGV2LnN2Yy5jbHVzdGVy
LmxvY2FsMA0GCSqGSIb3DQEBCwUAA4ICAQBy6OzbGgUFryUrO5YsNPYrGqMORZ2y
wd17EerULGpBHcarF1EZ5cyrYASjosi1XkkpmNYDuzecV+4OCJjf8Df8G/LkZf9a
GjZObi4x20nIWA7k6ueIzVT9bIf2wFn/lPaIok59R28Tex0ig+Ra6P2cTqKUGEXJ
Jc8Hdd5UKimiVNFsFXIFUuq59gWh4YBFr6C+UD1oRq+AoNHGaImHOtR1mDB3CFRv
AwKhdLoQMwsp96hW+fDPm75gftvBwdfEGbnGhwkTIMCWJJJJFTFaNVivs24UqZhP
JxQWT9Z5AxD5ADxtIfyxbmtcm8mBDbx2thtCwtTcMJGqiDITgKJXGHGVKLmSIcnT
unxzO9ouW4+mzLJFSM0ZUqYDwTKxOu5sC2XjvzjvBVA2vVagBlQzwUAf5GkR5DZW
qAIpAJTvy8De0K35ce+3V0hiSwWglpbiOlNdSjucI0ugMFyZY83qFq20Ng6MjUxY
uhfEVfJrjgvauvMf+j9CQW5/sq30DNeR5Q1iaa9XIxnNte8YmkNDcokLO9mx0QP+
1TfXNZ4nVLJZTiwAmc7HSFQpm7y2dZvFi2qXJeKoneyINGXzfQ/VbVcRoEMS7UOo
Iln/h7aO0kE2+GRIqBB076gQIBHgpUoIgaReeSNBZrEGpPjtSvAdWefGq3qgeG7g
rMBygM0Ms9dnDQ==
-----END CERTIFICATE-----
-----BEGIN CERTIFICATE-----
MIIFtzCCA5+gAwIBAgIUSGnzgTCwXybAzI3ibwdu8K4kncswDQYJKoZIhvcNAQEL
BQAwajELMAkGA1UEBhMCVVMxETAPBgNVBAgMCE1pY2hpZ2FuMRQwEgYDVQQHDAtH
cmFuZFJhcGlkczERMA8GA1UECgwIb2JzZXJ2SVExDTALBgNVBAsMBHRlc3QxEDAO
BgNVBAMMB3Rlc3QtY2EwIBcNMjIwNjIwMTQ1MzE2WhgPMjA1MjA2MTIxNDUzMTZa
MGoxCzAJBgNVBAYTAlVTMREwDwYDVQQIDAhNaWNoaWdhbjEUMBIGA1UEBwwLR3Jh
bmRSYXBpZHMxETAPBgNVBAoMCG9ic2VydklRMQ0wCwYDVQQLDAR0ZXN0MRAwDgYD
VQQDDAd0ZXN0LWNhMIICIjANBgkqhkiG9w0BAQEFAAOCAg8AMIICCgKCAgEA2xms
L2qeJtpAW3hoSaaV8QTCNxCrbyviI5o65Z4NtzrrQMzlX/Jis8hwJiorb01BcORf
pkFCVEgpbW55BEXolLRvcC5CZpPqyEetRhB4eM2nM9IDZ+M2wQB9BezDyT1av/WR
hF8VbOQCbIIEtj+ODvyC+ZPrB+isFqqlWG9iWLG4+OJ5vzpNeXlFp/twLHzsVH9W
F9P03c/f75qr4e9e/1jJjRHPMhB7CYokccS5vZR7WB+8bJJH5x/6k7elh/vFgZWF
sm2UHeIjyjeUbKetm9v0RH+ekhk4NQcnRX4GdPa6FTIQVOn+x7yBF7GtZmQoQ7ej
e69UnCi73Efsf7uV+bY+RNP0Qj8KxAzl9SACZO2S7PPKUunCe9EC1P3DMiuiVDuG
xbR2qFW4jsZnqW2vLrd9v8KRmTx8b2FdGxO7uy9bpplx+BnNFmQ/Dda2aThdNKFS
AV7i18brjiYyOYGIb3kVME8gWuBjHLnjkTlkDm6ULIe6y2cXbqtTt5Hu8irGEqdM
/L9QbDQo1fYivQdkAbAzJlMDCWHfuBSLMTMtdy0yqboJk2Jkva1lFJo96/MyUpWH
F+wNHJtBrLwJKU0BR4GJSagp/tcy5IrDHzXH3VnkRY9iHCNbkgx5q5J/XTAxRVDz
+2QDzlU/2mjMVGfhsk/cOYuJ7I1ADWrJwkswe68CAwEAAaNTMFEwHQYDVR0OBBYE
FEn56rocWXor1wcOMNG01g2UHdXGMB8GA1UdIwQYMBaAFEn56rocWXor1wcOMNG0
1g2UHdXGMA8GA1UdEwEB/wQFMAMBAf8wDQYJKoZIhvcNAQELBQADggIBANknVEAo
SWNbRDD1yP9VozPiBAD20QcHKgxLVsCxFAEgGCE9XT3f0Mgbf35EQwgJcdAgYzjA
BAB+0aKloc+N9/rwGrYr+H23UYES9saTD9u5yxph0VuCbsKHv1zJW+8SVCUoEwyW
q6yQ+5vnjb267MtdNH7Eq0HYyOpEuSTqSbC8LaufIDQdhWbGwJPXOmBDhHB4dNAv
H4j7KjM8hDVO391HaONs5iRc+LQf/NJ9QMEQRc6bR4Vec2C80DhMiDS6CIl+SSRV
2qrXLvKIU1trWCpr/iXFwFjSoFPkE6Ua6hSqg5K+yBKDbitF00s/nBOBdsSHpE2q
dFaH3Gj5cLw7UXHH0XKcDcet6v3aGyVtc8fL6jRl0KA8yUcpf3CZYZF+RKVGebZx
wmzL/OAjh9FEtCk15avQ+tGzwlD0vqH35lJ/do7mzZyai54StAbMpI49ENAcDAAL
ecRniGUFwNqZtPtuC+oI8Km0bkrjvzfTPhnBv0uEy6vHVm7hp6SMfX71l/7lnnla
K5sOpN1/ElGw/Yv2wGAYhlv4eta595Sz2S2X1PAwmN+tt86Ah6lc0H5lF/RoYczv
1o4fVmr5YWMytw0eToKCGoj2ptXEK3jd5uaj5m9+taulQ3qZH8tv5aYK1HSadrt7
dJfVIHfEYeraQ3T3yM4hX3PnVzUtyTTO1BIz
-----END CERTIFICATE-----
